target datalayout = "e-m:e-p270:32:32-p271:32:32-p272:64:64-i64:64-i128:128-f80:128-n8:16:32:64-S128"
target triple = "x86_64-pc-linux-gnu"

%struct.ATempoContext = type { ptr, ptr, i32, i32, i32, i32, [2 x i64], i64, i32, i32, i32, i32, ptr, double, [2 x i64], [2 x %struct.AudioFragment], i64, i32, ptr, ptr, ptr, ptr, ptr, ptr, ptr, ptr, ptr, i64, i64 }
%struct.AudioFragment = type { [2 x i64], ptr, i32, ptr, ptr }
%struct.AVComplexFloat = type { float, float }

; Function Attrs: nounwind uwtable
define internal void @yae_xcorr_via_rdft(ptr noundef %0, ptr noundef %1, ptr noundef %2, ptr noundef %3, ptr noundef %4, ptr noundef %5, i32 noundef %6) #1 {
  %8 = alloca ptr, align 8
  %9 = alloca ptr, align 8
  %10 = alloca ptr, align 8
  %11 = alloca ptr, align 8
  %12 = alloca ptr, align 8
  %13 = alloca ptr, align 8
  %14 = alloca i32, align 4
  %15 = alloca ptr, align 8
  %16 = alloca i32, align 4
  store ptr %0, ptr %8, align 8, !tbaa !87
  store ptr %1, ptr %9, align 8, !tbaa !87
  store ptr %2, ptr %10, align 8, !tbaa !130
  store ptr %3, ptr %11, align 8, !tbaa !131
  store ptr %4, ptr %12, align 8, !tbaa !133
  store ptr %5, ptr %13, align 8, !tbaa !133
  store i32 %6, ptr %14, align 4, !tbaa !33
  call void @llvm.lifetime.start.p0(i64 8, ptr %15) #11
  %17 = load ptr, ptr %8, align 8, !tbaa !87
  store ptr %17, ptr %15, align 8, !tbaa !133
  call void @llvm.lifetime.start.p0(i64 4, ptr %16) #11
  store i32 0, ptr %16, align 4, !tbaa !33
  br label %18

18:                                               ; preds = %56, %7
  %19 = load i32, ptr %16, align 4, !tbaa !33
  %20 = load i32, ptr %14, align 4, !tbaa !33
  %21 = icmp sle i32 %19, %20
  br i1 %21, label %22, label %65

22:                                               ; preds = %18
  %23 = load ptr, ptr %12, align 8, !tbaa !133
  %24 = getelementptr inbounds nuw %struct.AVComplexFloat, ptr %23, i32 0, i32 0
  %25 = load float, ptr %24, align 4, !tbaa !135
  %26 = load ptr, ptr %13, align 8, !tbaa !133
  %27 = getelementptr inbounds nuw %struct.AVComplexFloat, ptr %26, i32 0, i32 0
  %28 = load float, ptr %27, align 4, !tbaa !135
  %29 = load ptr, ptr %12, align 8, !tbaa !133
  %30 = getelementptr inbounds nuw %struct.AVComplexFloat, ptr %29, i32 0, i32 1
  %31 = load float, ptr %30, align 4, !tbaa !137
  %32 = load ptr, ptr %13, align 8, !tbaa !133
  %33 = getelementptr inbounds nuw %struct.AVComplexFloat, ptr %32, i32 0, i32 1
  %34 = load float, ptr %33, align 4, !tbaa !137
  %35 = fmul nsz float %31, %34
  %36 = call nsz float @llvm.fmuladd.f32(float %25, float %28, float %35)
  %37 = load ptr, ptr %15, align 8, !tbaa !133
  %38 = getelementptr inbounds nuw %struct.AVComplexFloat, ptr %37, i32 0, i32 0
  store float %36, ptr %38, align 4, !tbaa !135
  %39 = load ptr, ptr %12, align 8, !tbaa !133
  %40 = getelementptr inbounds nuw %struct.AVComplexFloat, ptr %39, i32 0, i32 1
  %41 = load float, ptr %40, align 4, !tbaa !137
  %42 = load ptr, ptr %13, align 8, !tbaa !133
  %43 = getelementptr inbounds nuw %struct.AVComplexFloat, ptr %42, i32 0, i32 0
  %44 = load float, ptr %43, align 4, !tbaa !135
  %45 = load ptr, ptr %12, align 8, !tbaa !133
  %46 = getelementptr inbounds nuw %struct.AVComplexFloat, ptr %45, i32 0, i32 0
  %47 = load float, ptr %46, align 4, !tbaa !135
  %48 = load ptr, ptr %13, align 8, !tbaa !133
  %49 = getelementptr inbounds nuw %struct.AVComplexFloat, ptr %48, i32 0, i32 1
  %50 = load float, ptr %49, align 4, !tbaa !137
  %51 = fmul nsz float %47, %50
  %52 = fneg nsz float %51
  %53 = call nsz float @llvm.fmuladd.f32(float %41, float %44, float %52)
  %54 = load ptr, ptr %15, align 8, !tbaa !133
  %55 = getelementptr inbounds nuw %struct.AVComplexFloat, ptr %54, i32 0, i32 1
  store float %53, ptr %55, align 4, !tbaa !137
  br label %56

56:                                               ; preds = %22
  %57 = load i32, ptr %16, align 4, !tbaa !33
  %58 = add nsw i32 %57, 1
  store i32 %58, ptr %16, align 4, !tbaa !33
  %59 = load ptr, ptr %12, align 8, !tbaa !133
  %60 = getelementptr inbounds nuw %struct.AVComplexFloat, ptr %59, i32 1
  store ptr %60, ptr %12, align 8, !tbaa !133
  %61 = load ptr, ptr %13, align 8, !tbaa !133
  %62 = getelementptr inbounds nuw %struct.AVComplexFloat, ptr %61, i32 1
  store ptr %62, ptr %13, align 8, !tbaa !133
  %63 = load ptr, ptr %15, align 8, !tbaa !133
  %64 = getelementptr inbounds nuw %struct.AVComplexFloat, ptr %63, i32 1
  store ptr %64, ptr %15, align 8, !tbaa !133
  br label %18, !llvm.loop !138

65:                                               ; preds = %18
  %66 = load ptr, ptr %11, align 8, !tbaa !131
  %67 = load ptr, ptr %10, align 8, !tbaa !130
  %68 = load ptr, ptr %9, align 8, !tbaa !87
  %69 = load ptr, ptr %8, align 8, !tbaa !87
  call void %66(ptr noundef %67, ptr noundef %68, ptr noundef %69, i64 noundef 8)
  call void @llvm.lifetime.end.p0(i64 4, ptr %16) #11
  call void @llvm.lifetime.end.p0(i64 8, ptr %15) #11
  ret void
}

; Function Attrs: nounwind uwtable
define internal i32 @yae_align(ptr noundef %0, ptr noundef %1, i32 noundef %2, i32 noundef %3, i32 noundef %4, ptr noundef %5, ptr noundef %6, ptr noundef %7, ptr noundef %8) #1 {
  %10 = alloca ptr, align 8
  %11 = alloca ptr, align 8
  %12 = alloca i32, align 4
  %13 = alloca i32, align 4
  %14 = alloca i32, align 4
  %15 = alloca ptr, align 8
  %16 = alloca ptr, align 8
  %17 = alloca ptr, align 8
  %18 = alloca ptr, align 8
  %19 = alloca i32, align 4
  %20 = alloca float, align 4
  %21 = alloca ptr, align 8
  %22 = alloca i32, align 4
  %23 = alloca i32, align 4
  %24 = alloca i32, align 4
  %25 = alloca float, align 4
  %26 = alloca float, align 4
  store ptr %0, ptr %10, align 8, !tbaa !75
  store ptr %1, ptr %11, align 8, !tbaa !75
  store i32 %2, ptr %12, align 4, !tbaa !33
  store i32 %3, ptr %13, align 4, !tbaa !33
  store i32 %4, ptr %14, align 4, !tbaa !33
  store ptr %5, ptr %15, align 8, !tbaa !87
  store ptr %6, ptr %16, align 8, !tbaa !87
  store ptr %7, ptr %17, align 8, !tbaa !130
  store ptr %8, ptr %18, align 8, !tbaa !131
  call void @llvm.lifetime.start.p0(i64 4, ptr %19) #11
  %27 = load i32, ptr %14, align 4, !tbaa !33
  %28 = sub nsw i32 0, %27
  store i32 %28, ptr %19, align 4, !tbaa !33
  call void @llvm.lifetime.start.p0(i64 4, ptr %20) #11
  store float 0xC7EFFFFFE0000000, ptr %20, align 4, !tbaa !89
  call void @llvm.lifetime.start.p0(i64 8, ptr %21) #11
  call void @llvm.lifetime.start.p0(i64 4, ptr %22) #11
  call void @llvm.lifetime.start.p0(i64 4, ptr %23) #11
  call void @llvm.lifetime.start.p0(i64 4, ptr %24) #11
  %29 = load ptr, ptr %15, align 8, !tbaa !87
  %30 = load ptr, ptr %16, align 8, !tbaa !87
  %31 = load ptr, ptr %17, align 8, !tbaa !130
  %32 = load ptr, ptr %18, align 8, !tbaa !131
  %33 = load ptr, ptr %11, align 8, !tbaa !75
  %34 = getelementptr inbounds nuw %struct.AudioFragment, ptr %33, i32 0, i32 4
  %35 = load ptr, ptr %34, align 8, !tbaa !67
  %36 = load ptr, ptr %10, align 8, !tbaa !75
  %37 = getelementptr inbounds nuw %struct.AudioFragment, ptr %36, i32 0, i32 4
  %38 = load ptr, ptr %37, align 8, !tbaa !67
  %39 = load i32, ptr %12, align 4, !tbaa !33
  call void @yae_xcorr_via_rdft(ptr noundef %29, ptr noundef %30, ptr noundef %31, ptr noundef %32, ptr noundef %35, ptr noundef %38, i32 noundef %39)
  %40 = load i32, ptr %12, align 4, !tbaa !33
  %41 = sdiv i32 %40, 2
  %42 = load i32, ptr %13, align 4, !tbaa !33
  %43 = sub nsw i32 %41, %42
  %44 = load i32, ptr %14, align 4, !tbaa !33
  %45 = sub nsw i32 %43, %44
  %46 = icmp sgt i32 %45, 0
  br i1 %46, label %47, label %54

47:                                               ; preds = %9
  %48 = load i32, ptr %12, align 4, !tbaa !33
  %49 = sdiv i32 %48, 2
  %50 = load i32, ptr %13, align 4, !tbaa !33
  %51 = sub nsw i32 %49, %50
  %52 = load i32, ptr %14, align 4, !tbaa !33
  %53 = sub nsw i32 %51, %52
  br label %55

54:                                               ; preds = %9
  br label %55

55:                                               ; preds = %54, %47
  %56 = phi i32 [ %53, %47 ], [ 0, %54 ]
  store i32 %56, ptr %22, align 4, !tbaa !33
  %57 = load i32, ptr %22, align 4, !tbaa !33
  %58 = load i32, ptr %12, align 4, !tbaa !33
  %59 = icmp sgt i32 %57, %58
  br i1 %59, label %60, label %62

60:                                               ; preds = %55
  %61 = load i32, ptr %12, align 4, !tbaa !33
  br label %64

62:                                               ; preds = %55
  %63 = load i32, ptr %22, align 4, !tbaa !33
  br label %64

64:                                               ; preds = %62, %60
  %65 = phi i32 [ %61, %60 ], [ %63, %62 ]
  store i32 %65, ptr %22, align 4, !tbaa !33
  %66 = load i32, ptr %12, align 4, !tbaa !33
  %67 = sdiv i32 %66, 2
  %68 = load i32, ptr %13, align 4, !tbaa !33
  %69 = add nsw i32 %67, %68
  %70 = load i32, ptr %14, align 4, !tbaa !33
  %71 = sub nsw i32 %69, %70
  %72 = load i32, ptr %12, align 4, !tbaa !33
  %73 = load i32, ptr %12, align 4, !tbaa !33
  %74 = sdiv i32 %73, 16
  %75 = sub nsw i32 %72, %74
  %76 = icmp sgt i32 %71, %75
  br i1 %76, label %77, label %82

77:                                               ; preds = %64
  %78 = load i32, ptr %12, align 4, !tbaa !33
  %79 = load i32, ptr %12, align 4, !tbaa !33
  %80 = sdiv i32 %79, 16
  %81 = sub nsw i32 %78, %80
  br label %89

82:                                               ; preds = %64
  %83 = load i32, ptr %12, align 4, !tbaa !33
  %84 = sdiv i32 %83, 2
  %85 = load i32, ptr %13, align 4, !tbaa !33
  %86 = add nsw i32 %84, %85
  %87 = load i32, ptr %14, align 4, !tbaa !33
  %88 = sub nsw i32 %86, %87
  br label %89

89:                                               ; preds = %82, %77
  %90 = phi i32 [ %81, %77 ], [ %88, %82 ]
  store i32 %90, ptr %23, align 4, !tbaa !33
  %91 = load i32, ptr %23, align 4, !tbaa !33
  %92 = icmp sgt i32 %91, 0
  br i1 %92, label %93, label %95

93:                                               ; preds = %89
  %94 = load i32, ptr %23, align 4, !tbaa !33
  br label %96

95:                                               ; preds = %89
  br label %96

96:                                               ; preds = %95, %93
  %97 = phi i32 [ %94, %93 ], [ 0, %95 ]
  store i32 %97, ptr %23, align 4, !tbaa !33
  %98 = load ptr, ptr %16, align 8, !tbaa !87
  %99 = load i32, ptr %22, align 4, !tbaa !33
  %100 = sext i32 %99 to i64
  %101 = getelementptr inbounds float, ptr %98, i64 %100
  store ptr %101, ptr %21, align 8, !tbaa !87
  %102 = load i32, ptr %22, align 4, !tbaa !33
  store i32 %102, ptr %24, align 4, !tbaa !33
  br label %103

103:                                              ; preds = %137, %96
  %104 = load i32, ptr %24, align 4, !tbaa !33
  %105 = load i32, ptr %23, align 4, !tbaa !33
  %106 = icmp slt i32 %104, %105
  br i1 %106, label %107, label %142

107:                                              ; preds = %103
  call void @llvm.lifetime.start.p0(i64 4, ptr %25) #11
  %108 = load ptr, ptr %21, align 8, !tbaa !87
  %109 = load float, ptr %108, align 4, !tbaa !89
  store float %109, ptr %25, align 4, !tbaa !89
  call void @llvm.lifetime.start.p0(i64 4, ptr %26) #11
  %110 = load i32, ptr %14, align 4, !tbaa !33
  %111 = load i32, ptr %24, align 4, !tbaa !33
  %112 = add nsw i32 %110, %111
  %113 = sitofp i32 %112 to float
  store float %113, ptr %26, align 4, !tbaa !89
  %114 = load float, ptr %26, align 4, !tbaa !89
  %115 = load i32, ptr %24, align 4, !tbaa !33
  %116 = load i32, ptr %22, align 4, !tbaa !33
  %117 = sub nsw i32 %115, %116
  %118 = sitofp i32 %117 to float
  %119 = fmul nsz float %114, %118
  %120 = load i32, ptr %23, align 4, !tbaa !33
  %121 = load i32, ptr %24, align 4, !tbaa !33
  %122 = sub nsw i32 %120, %121
  %123 = sitofp i32 %122 to float
  %124 = fmul nsz float %119, %123
  %125 = load float, ptr %25, align 4, !tbaa !89
  %126 = fmul nsz float %125, %124
  store float %126, ptr %25, align 4, !tbaa !89
  %127 = load float, ptr %25, align 4, !tbaa !89
  %128 = load float, ptr %20, align 4, !tbaa !89
  %129 = fcmp nsz ogt float %127, %128
  br i1 %129, label %130, label %136

130:                                              ; preds = %107
  %131 = load float, ptr %25, align 4, !tbaa !89
  store float %131, ptr %20, align 4, !tbaa !89
  %132 = load i32, ptr %24, align 4, !tbaa !33
  %133 = load i32, ptr %12, align 4, !tbaa !33
  %134 = sdiv i32 %133, 2
  %135 = sub nsw i32 %132, %134
  store i32 %135, ptr %19, align 4, !tbaa !33
  br label %136

136:                                              ; preds = %130, %107
  call void @llvm.lifetime.end.p0(i64 4, ptr %26) #11
  call void @llvm.lifetime.end.p0(i64 4, ptr %25) #11
  br label %137

137:                                              ; preds = %136
  %138 = load i32, ptr %24, align 4, !tbaa !33
  %139 = add nsw i32 %138, 1
  store i32 %139, ptr %24, align 4, !tbaa !33
  %140 = load ptr, ptr %21, align 8, !tbaa !87
  %141 = getelementptr inbounds nuw float, ptr %140, i32 1
  store ptr %141, ptr %21, align 8, !tbaa !87
  br label %103, !llvm.loop !132

142:                                              ; preds = %103
  %143 = load i32, ptr %19, align 4, !tbaa !33
  call void @llvm.lifetime.end.p0(i64 4, ptr %24) #11
  call void @llvm.lifetime.end.p0(i64 4, ptr %23) #11
  call void @llvm.lifetime.end.p0(i64 4, ptr %22) #11
  call void @llvm.lifetime.end.p0(i64 8, ptr %21) #11
  call void @llvm.lifetime.end.p0(i64 4, ptr %20) #11
  call void @llvm.lifetime.end.p0(i64 4, ptr %19) #11
  ret i32 %143
}

; Function Attrs: inlinehint nounwind uwtable
define internal ptr @yae_curr_frag(ptr noundef %0) #5 {
  %2 = alloca ptr, align 8
  store ptr %0, ptr %2, align 8, !tbaa !22
  %3 = load ptr, ptr %2, align 8, !tbaa !22
  %4 = getelementptr inbounds nuw %struct.ATempoContext, ptr %3, i32 0, i32 15
  %5 = load ptr, ptr %2, align 8, !tbaa !22
  %6 = getelementptr inbounds nuw %struct.ATempoContext, ptr %5, i32 0, i32 16
  %7 = load i64, ptr %6, align 8, !tbaa !70
  %8 = urem i64 %7, 2
  %9 = getelementptr inbounds nuw [2 x %struct.AudioFragment], ptr %4, i64 0, i64 %8
  ret ptr %9
}

; Function Attrs: inlinehint nounwind uwtable
define internal ptr @yae_prev_frag(ptr noundef %0) #5 {
  %2 = alloca ptr, align 8
  store ptr %0, ptr %2, align 8, !tbaa !22
  %3 = load ptr, ptr %2, align 8, !tbaa !22
  %4 = getelementptr inbounds nuw %struct.ATempoContext, ptr %3, i32 0, i32 15
  %5 = load ptr, ptr %2, align 8, !tbaa !22
  %6 = getelementptr inbounds nuw %struct.ATempoContext, ptr %5, i32 0, i32 16
  %7 = load i64, ptr %6, align 8, !tbaa !70
  %8 = add i64 %7, 1
  %9 = urem i64 %8, 2
  %10 = getelementptr inbounds nuw [2 x %struct.AudioFragment], ptr %4, i64 0, i64 %9
  ret ptr %10
}

; Function Attrs: nounwind uwtable
define internal i32 @yae_adjust_position(ptr noundef %0) #1 {
  %2 = alloca ptr, align 8
  %3 = alloca ptr, align 8
  %4 = alloca ptr, align 8
  %5 = alloca double, align 8
  %6 = alloca double, align 8
  %7 = alloca i32, align 4
  %8 = alloca i32, align 4
  %9 = alloca i32, align 4
  store ptr %0, ptr %2, align 8, !tbaa !22
  call void @llvm.lifetime.start.p0(i64 8, ptr %3) #11
  %10 = load ptr, ptr %2, align 8, !tbaa !22
  %11 = call ptr @yae_prev_frag(ptr noundef %10)
  store ptr %11, ptr %3, align 8, !tbaa !75
  call void @llvm.lifetime.start.p0(i64 8, ptr %4) #11
  %12 = load ptr, ptr %2, align 8, !tbaa !22
  %13 = call ptr @yae_curr_frag(ptr noundef %12)
  store ptr %13, ptr %4, align 8, !tbaa !75
  call void @llvm.lifetime.start.p0(i64 8, ptr %5) #11
  %14 = load ptr, ptr %3, align 8, !tbaa !75
  %15 = getelementptr inbounds nuw %struct.AudioFragment, ptr %14, i32 0, i32 0
  %16 = getelementptr inbounds [2 x i64], ptr %15, i64 0, i64 1
  %17 = load i64, ptr %16, align 8, !tbaa !77
  %18 = load ptr, ptr %2, align 8, !tbaa !22
  %19 = getelementptr inbounds nuw %struct.ATempoContext, ptr %18, i32 0, i32 14
  %20 = getelementptr inbounds [2 x i64], ptr %19, i64 0, i64 1
  %21 = load i64, ptr %20, align 8, !tbaa !77
  %22 = sub nsw i64 %17, %21
  %23 = load ptr, ptr %2, align 8, !tbaa !22
  %24 = getelementptr inbounds nuw %struct.ATempoContext, ptr %23, i32 0, i32 11
  %25 = load i32, ptr %24, align 4, !tbaa !78
  %26 = sdiv i32 %25, 2
  %27 = sext i32 %26 to i64
  %28 = add nsw i64 %22, %27
  %29 = sitofp i64 %28 to double
  %30 = load ptr, ptr %2, align 8, !tbaa !22
  %31 = getelementptr inbounds nuw %struct.ATempoContext, ptr %30, i32 0, i32 13
  %32 = load double, ptr %31, align 8, !tbaa !51
  %33 = fmul nsz double %29, %32
  store double %33, ptr %5, align 8, !tbaa !105
  call void @llvm.lifetime.start.p0(i64 8, ptr %6) #11
  %34 = load ptr, ptr %3, align 8, !tbaa !75
  %35 = getelementptr inbounds nuw %struct.AudioFragment, ptr %34, i32 0, i32 0
  %36 = getelementptr inbounds [2 x i64], ptr %35, i64 0, i64 0
  %37 = load i64, ptr %36, align 8, !tbaa !77
  %38 = load ptr, ptr %2, align 8, !tbaa !22
  %39 = getelementptr inbounds nuw %struct.ATempoContext, ptr %38, i32 0, i32 14
  %40 = getelementptr inbounds [2 x i64], ptr %39, i64 0, i64 0
  %41 = load i64, ptr %40, align 8, !tbaa !77
  %42 = sub nsw i64 %37, %41
  %43 = load ptr, ptr %2, align 8, !tbaa !22
  %44 = getelementptr inbounds nuw %struct.ATempoContext, ptr %43, i32 0, i32 11
  %45 = load i32, ptr %44, align 4, !tbaa !78
  %46 = sdiv i32 %45, 2
  %47 = sext i32 %46 to i64
  %48 = add nsw i64 %42, %47
  %49 = sitofp i64 %48 to double
  store double %49, ptr %6, align 8, !tbaa !105
  call void @llvm.lifetime.start.p0(i64 4, ptr %7) #11
  %50 = load double, ptr %5, align 8, !tbaa !105
  %51 = load double, ptr %6, align 8, !tbaa !105
  %52 = fsub nsz double %50, %51
  %53 = fptosi double %52 to i32
  store i32 %53, ptr %7, align 4, !tbaa !33
  call void @llvm.lifetime.start.p0(i64 4, ptr %8) #11
  %54 = load ptr, ptr %2, align 8, !tbaa !22
  %55 = getelementptr inbounds nuw %struct.ATempoContext, ptr %54, i32 0, i32 11
  %56 = load i32, ptr %55, align 4, !tbaa !78
  %57 = sdiv i32 %56, 2
  store i32 %57, ptr %8, align 4, !tbaa !33
  call void @llvm.lifetime.start.p0(i64 4, ptr %9) #11
  %58 = load ptr, ptr %4, align 8, !tbaa !75
  %59 = load ptr, ptr %3, align 8, !tbaa !75
  %60 = load ptr, ptr %2, align 8, !tbaa !22
  %61 = getelementptr inbounds nuw %struct.ATempoContext, ptr %60, i32 0, i32 11
  %62 = load i32, ptr %61, align 4, !tbaa !78
  %63 = load i32, ptr %8, align 4, !tbaa !33
  %64 = load i32, ptr %7, align 4, !tbaa !33
  %65 = load ptr, ptr %2, align 8, !tbaa !22
  %66 = getelementptr inbounds nuw %struct.ATempoContext, ptr %65, i32 0, i32 22
  %67 = load ptr, ptr %66, align 8, !tbaa !109
  %68 = load ptr, ptr %2, align 8, !tbaa !22
  %69 = getelementptr inbounds nuw %struct.ATempoContext, ptr %68, i32 0, i32 23
  %70 = load ptr, ptr %69, align 8, !tbaa !110
  %71 = load ptr, ptr %2, align 8, !tbaa !22
  %72 = getelementptr inbounds nuw %struct.ATempoContext, ptr %71, i32 0, i32 19
  %73 = load ptr, ptr %72, align 8, !tbaa !111
  %74 = load ptr, ptr %2, align 8, !tbaa !22
  %75 = getelementptr inbounds nuw %struct.ATempoContext, ptr %74, i32 0, i32 21
  %76 = load ptr, ptr %75, align 8, !tbaa !112
  %77 = call i32 @yae_align(ptr noundef %58, ptr noundef %59, i32 noundef %62, i32 noundef %63, i32 noundef %64, ptr noundef %67, ptr noundef %70, ptr noundef %73, ptr noundef %76)
  store i32 %77, ptr %9, align 4, !tbaa !33
  %78 = load i32, ptr %9, align 4, !tbaa !33
  %79 = icmp ne i32 %78, 0
  br i1 %79, label %80, label %90

80:                                               ; preds = %1
  %81 = load i32, ptr %9, align 4, !tbaa !33
  %82 = sext i32 %81 to i64
  %83 = load ptr, ptr %4, align 8, !tbaa !75
  %84 = getelementptr inbounds nuw %struct.AudioFragment, ptr %83, i32 0, i32 0
  %85 = getelementptr inbounds [2 x i64], ptr %84, i64 0, i64 0
  %86 = load i64, ptr %85, align 8, !tbaa !77
  %87 = sub nsw i64 %86, %82
  store i64 %87, ptr %85, align 8, !tbaa !77
  %88 = load ptr, ptr %4, align 8, !tbaa !75
  %89 = getelementptr inbounds nuw %struct.AudioFragment, ptr %88, i32 0, i32 2
  store i32 0, ptr %89, align 8, !tbaa !79
  br label %90

90:                                               ; preds = %80, %1
  %91 = load i32, ptr %9, align 4, !tbaa !33
  call void @llvm.lifetime.end.p0(i64 4, ptr %9) #11
  call void @llvm.lifetime.end.p0(i64 4, ptr %8) #11
  call void @llvm.lifetime.end.p0(i64 4, ptr %7) #11
  call void @llvm.lifetime.end.p0(i64 8, ptr %6) #11
  call void @llvm.lifetime.end.p0(i64 8, ptr %5) #11
  call void @llvm.lifetime.end.p0(i64 8, ptr %4) #11
  call void @llvm.lifetime.end.p0(i64 8, ptr %3) #11
  ret i32 %91
}