; Function Attrs: nounwind uwtable
define internal fastcc i32 @yae_adjust_position(ptr noundef captures(none) %0) unnamed_addr #2 {
  %2 = getelementptr inbounds nuw i8, ptr %0, i64 104
  %3 = getelementptr inbounds nuw i8, ptr %0, i64 200
  %4 = load i64, ptr %3, align 8, !tbaa !28
  %5 = and i64 %4, 1
  %6 = xor i64 %5, 1
  %7 = getelementptr inbounds nuw [2 x %struct.AudioFragment], ptr %2, i64 0, i64 %6
  %8 = getelementptr inbounds nuw [2 x %struct.AudioFragment], ptr %2, i64 0, i64 %5
  %9 = getelementptr inbounds nuw i8, ptr %7, i64 8
  %10 = load i64, ptr %9, align 8, !tbaa !29
  %11 = getelementptr inbounds nuw i8, ptr %0, i64 88
  %12 = getelementptr inbounds nuw i8, ptr %0, i64 96
  %13 = load i64, ptr %12, align 8, !tbaa !29
  %14 = sub i64 %10, %13
  %15 = getelementptr inbounds nuw i8, ptr %0, i64 68
  %16 = load i32, ptr %15, align 4, !tbaa !30
  %17 = sdiv i32 %16, 2
  %18 = sext i32 %17 to i64
  %19 = add nsw i64 %14, %18
  %20 = sitofp i64 %19 to double
  %21 = getelementptr inbounds nuw i8, ptr %0, i64 80
  %22 = load double, ptr %21, align 8, !tbaa !49
  %23 = fmul nsz double %22, %20
  %24 = load i64, ptr %7, align 8, !tbaa !29
  %25 = load i64, ptr %11, align 8, !tbaa !29
  %26 = add i64 %24, %18
  %27 = sub i64 %26, %25
  %28 = sitofp i64 %27 to double
  %29 = fsub nsz double %23, %28
  %30 = fptosi double %29 to i32
  %31 = getelementptr inbounds nuw i8, ptr %0, i64 248
  %32 = load ptr, ptr %31, align 8, !tbaa !63
  %33 = getelementptr inbounds nuw i8, ptr %0, i64 256
  %34 = load ptr, ptr %33, align 8, !tbaa !64
  %35 = getelementptr inbounds nuw i8, ptr %0, i64 224
  %36 = load ptr, ptr %35, align 8, !tbaa !65
  %37 = getelementptr inbounds nuw i8, ptr %0, i64 240
  %38 = load ptr, ptr %37, align 8, !tbaa !66
  %39 = sub i32 0, %30
  %.not23.i.i = icmp slt i32 %16, 0
  br i1 %.not23.i.i, label %yae_xcorr_via_rdft.exit.i, label %.lr.ph.i.i.preheader

.lr.ph.i.i.preheader:                             ; preds = %1
  %40 = getelementptr i8, ptr %7, i64 40
  %.val25 = load ptr, ptr %40, align 8, !tbaa !59
  %41 = getelementptr i8, ptr %8, i64 40
  %.val = load ptr, ptr %41, align 8, !tbaa !59
  br label %.lr.ph.i.i

.lr.ph.i.i:                                       ; preds = %.lr.ph.i.i.preheader, %.lr.ph.i.i
  %.027.i.i = phi i32 [ %56, %.lr.ph.i.i ], [ 0, %.lr.ph.i.i.preheader ]
  %.02026.i.i = phi ptr [ %59, %.lr.ph.i.i ], [ %32, %.lr.ph.i.i.preheader ]
  %.02125.i.i = phi ptr [ %57, %.lr.ph.i.i ], [ %.val25, %.lr.ph.i.i.preheader ]
  %.02224.i.i = phi ptr [ %58, %.lr.ph.i.i ], [ %.val, %.lr.ph.i.i.preheader ]
  %42 = load float, ptr %.02125.i.i, align 4, !tbaa !67
  %43 = load float, ptr %.02224.i.i, align 4, !tbaa !67
  %44 = getelementptr inbounds nuw i8, ptr %.02125.i.i, i64 4
  %45 = load float, ptr %44, align 4, !tbaa !70
  %46 = getelementptr inbounds nuw i8, ptr %.02224.i.i, i64 4
  %47 = load float, ptr %46, align 4, !tbaa !70
  %48 = fmul nsz float %45, %47
  %49 = tail call nsz float @llvm.fmuladd.f32(float %42, float %43, float %48)
  store float %49, ptr %.02026.i.i, align 4, !tbaa !67
  %50 = load float, ptr %.02224.i.i, align 4, !tbaa !67
  %51 = load float, ptr %.02125.i.i, align 4, !tbaa !67
  %52 = fneg nsz float %47
  %53 = fmul nsz float %51, %52
  %54 = tail call nsz float @llvm.fmuladd.f32(float %45, float %50, float %53)
  %55 = getelementptr inbounds nuw i8, ptr %.02026.i.i, i64 4
  store float %54, ptr %55, align 4, !tbaa !70
  %56 = add nuw i32 %.027.i.i, 1
  %57 = getelementptr inbounds nuw i8, ptr %.02125.i.i, i64 8
  %58 = getelementptr inbounds nuw i8, ptr %.02224.i.i, i64 8
  %59 = getelementptr inbounds nuw i8, ptr %.02026.i.i, i64 8
  %exitcond.not.i.i = icmp eq i32 %.027.i.i, %16
  br i1 %exitcond.not.i.i, label %yae_xcorr_via_rdft.exit.i, label %.lr.ph.i.i, !llvm.loop !71

yae_xcorr_via_rdft.exit.i:                        ; preds = %.lr.ph.i.i, %1
  tail call void %38(ptr noundef %36, ptr noundef %34, ptr noundef %32, i64 noundef 8) #12
  %spec.select.i = tail call i32 @llvm.smax.i32(i32 %39, i32 0)
  %60 = tail call i32 @llvm.smin.i32(i32 %spec.select.i, i32 %16)
  %61 = shl nsw i32 %17, 1
  %62 = sub i32 %61, %30
  %.neg.i = sdiv i32 %16, -16
  %63 = add i32 %.neg.i, %16
  %64 = tail call i32 @llvm.smin.i32(i32 %62, i32 %63)
  %65 = tail call i32 @llvm.smax.i32(i32 %64, i32 0)
  %66 = icmp slt i32 %60, %65
  br i1 %66, label %.lr.ph.preheader.i, label %yae_align.exit

.lr.ph.preheader.i:                               ; preds = %yae_xcorr_via_rdft.exit.i
  %67 = sext i32 %60 to i64
  %68 = getelementptr inbounds float, ptr %34, i64 %67
  br label %.lr.ph.i

.lr.ph.i:                                         ; preds = %.lr.ph.i, %.lr.ph.preheader.i
  %.08.i = phi i32 [ %.1.i, %.lr.ph.i ], [ %39, %.lr.ph.preheader.i ]
  %.0517.i = phi i32 [ %81, %.lr.ph.i ], [ %60, %.lr.ph.preheader.i ]
  %.0526.i = phi ptr [ %82, %.lr.ph.i ], [ %68, %.lr.ph.preheader.i ]
  %.0535.i = phi float [ %.154.i, %.lr.ph.i ], [ 0xC7EFFFFFE0000000, %.lr.ph.preheader.i ]
  %69 = load float, ptr %.0526.i, align 4, !tbaa !73
  %70 = add nsw i32 %.0517.i, %30
  %71 = sitofp i32 %70 to float
  %72 = sub nsw i32 %.0517.i, %60
  %73 = sitofp i32 %72 to float
  %74 = fmul nsz float %71, %73
  %75 = sub nsw i32 %65, %.0517.i
  %76 = sitofp i32 %75 to float
  %77 = fmul nsz float %74, %76
  %78 = fmul nsz float %69, %77
  %79 = fcmp nsz ogt float %78, %.0535.i
  %80 = sub nsw i32 %.0517.i, %17
  %.154.i = select nsz i1 %79, float %78, float %.0535.i
  %.1.i = select i1 %79, i32 %80, i32 %.08.i
  %81 = add nsw i32 %.0517.i, 1
  %82 = getelementptr inbounds nuw i8, ptr %.0526.i, i64 4
  %exitcond.not.i = icmp eq i32 %81, %65
  br i1 %exitcond.not.i, label %yae_align.exit, label %.lr.ph.i, !llvm.loop !74

yae_align.exit:                                   ; preds = %.lr.ph.i, %yae_xcorr_via_rdft.exit.i
  %.0.lcssa.i = phi i32 [ %39, %yae_xcorr_via_rdft.exit.i ], [ %.1.i, %.lr.ph.i ]
  %.not = icmp eq i32 %.0.lcssa.i, 0
  br i1 %.not, label %88, label %83

83:                                               ; preds = %yae_align.exit
  %84 = sext i32 %.0.lcssa.i to i64
  %85 = load i64, ptr %8, align 8, !tbaa !29
  %86 = sub nsw i64 %85, %84
  store i64 %86, ptr %8, align 8, !tbaa !29
  %87 = getelementptr inbounds nuw i8, ptr %8, i64 24
  store i32 0, ptr %87, align 8, !tbaa !62
  br label %88

88:                                               ; preds = %83, %yae_align.exit
  ret i32 %.0.lcssa.i
}